; Function Attrs: mustprogress uwtable
define void @_ZN8proxygen15HTTPTransaction22onEgressBodyBytesAckedEm(ptr noundef nonnull align 8 dereferenceable(912) %this, i64 noundef %bodyOffset) local_unnamed_addr #3 align 2 personality ptr @__gxx_personality_v0 {
entry:
  %add.ptr = getelementptr inbounds i8, ptr %this, i64 64
  %guardCount_.i = getelementptr inbounds i8, ptr %this, i64 72
  %0 = load i32, ptr %guardCount_.i, align 8
  %inc.i = add i32 %0, 1
  store i32 %inc.i, ptr %guardCount_.i, align 8
  %transportCallback_ = getelementptr inbounds i8, ptr %this, i64 360
  %1 = load ptr, ptr %transportCallback_, align 8
  %tobool.not = icmp eq ptr %1, null
  br i1 %tobool.not, label %if.then.i, label %if.then

if.then:                                          ; preds = %entry
  %vtable = load ptr, ptr %1, align 8
  %vfn = getelementptr inbounds i8, ptr %vtable, i64 112
  %2 = load ptr, ptr %vfn, align 8
  tail call void %2(ptr noundef nonnull align 8 dereferenceable(8) %1, i64 noundef %bodyOffset) #27
  %.pre = load i32, ptr %guardCount_.i, align 8
  %3 = add i32 %.pre, -1
  br label %if.then.i

if.then.i:                                        ; preds = %entry, %if.then
  %dec.i = phi i32 [ %0, %entry ], [ %3, %if.then ]
  store i32 %dec.i, ptr %guardCount_.i, align 8
  %cmp5.i = icmp eq i32 %dec.i, 0
  br i1 %cmp5.i, label %if.then6.i, label %_ZN5folly22DelayedDestructionBase15DestructorGuardD2Ev.exit

if.then6.i:                                       ; preds = %if.then.i
  %vtable.i = load ptr, ptr %add.ptr, align 8
  %vfn.i = getelementptr inbounds i8, ptr %vtable.i, i64 16
  %4 = load ptr, ptr %vfn.i, align 8
  invoke void %4(ptr noundef nonnull align 8 dereferenceable(12) %add.ptr, i1 noundef zeroext true)
          to label %_ZN5folly22DelayedDestructionBase15DestructorGuardD2Ev.exit unwind label %terminate.lpad.i

terminate.lpad.i:                                 ; preds = %if.then6.i
  %5 = landingpad { ptr, i32 }
          catch ptr null
  %6 = extractvalue { ptr, i32 } %5, 0
  tail call void @__clang_call_terminate(ptr %6) #29
  unreachable

_ZN5folly22DelayedDestructionBase15DestructorGuardD2Ev.exit: ; preds = %if.then.i, %if.then6.i
  ret void
}